Certificate:
    Data:
        Version: 3 (0x2)
        Serial Number: 1 (0x1)
        Signature Algorithm: sha1WithRSAEncryption
        Issuer: O=XySSL, CN=XySSL Test CA
        Validity
            Not Before: Nov 29 19:50:30 2007 GMT
            Not After : Nov 28 19:50:30 2009 GMT
        Subject: O=XySSL, CN=server1.test
        Subject Public Key Info:
            Public Key Algorithm: rsaEncryption
            RSA Public Key: (2048 bit)
                Modulus (2048 bit):
                    00:c6:ca:48:5e:2b:f2:79:4b:32:0c:38:01:e1:4c:
                    1c:d1:24:bb:ea:de:b8:2f:fb:7a:01:da:4b:3c:13:
                    0b:d1:12:c0:69:dc:f3:37:2b:fd:b7:a3:b7:49:f2:
                    57:c2:6d:f8:be:90:f6:7e:fa:80:37:89:17:b8:4c:
                    85:22:36:f4:36:51:9f:91:6b:48:01:9e:bb:e6:8e:
                    99:be:ab:45:01:c2:6f:f0:0f:ad:22:ba:83:06:38:
                    aa:b2:3c:e7:f4:aa:c9:32:30:32:db:1c:1a:96:87:
                    eb:2f:53:0d:97:2d:75:3c:bc:75:74:e5:04:51:67:
                    4e:4e:81:d0:00:4c:ff:47:e7:c3:ca:1f:5d:1c:65:
                    00:89:0b:d2:78:a5:d3:d2:8f:5c:f8:fe:e5:54:9d:
                    64:83:bc:12:dc:38:cc:b4:68:3e:2b:c6:b9:d0:ef:
                    b1:e8:bc:cf:5a:b5:b3:1f:47:0a:b1:0f:79:06:97:
                    73:3b:75:f0:6e:26:1d:36:88:4a:e9:64:b6:e6:58:
                    f8:92:12:a6:7c:08:cc:7b:69:47:6e:c6:65:ae:d8:
                    31:39:30:3d:ca:0a:4b:2c:c2:01:3e:e9:05:c6:6e:
                    1f:ce:38:21:22:f4:f5:00:1e:18:0e:d5:48:1a:6e:
                    d5:22:82:af:be:09:a7:47:03:0b:d3:4d:52:5e:34:
                    d1:15
                Exponent: 65537 (0x10001)
        X509v3 extensions:
            X509v3 Basic Constraints: 
                CA:FALSE
            X509v3 Subject Key Identifier: 
                F7:AB:E7:C0:58:5F:E0:01:C5:A4:26:83:44:CC:1E:7A:91:C9:44:65
            X509v3 Authority Key Identifier: 
                keyid:F2:67:B1:5D:5F:51:5E:DA:51:89:E9:D9:E9:6B:CA:8B:AF:A5:2E:69

    Signature Algorithm: sha1WithRSAEncryption
        06:9b:8d:63:8c:bb:8a:2b:1a:87:ae:3a:27:34:bc:24:60:f0:
        95:12:0e:f5:4c:e6:e4:1f:bd:e2:83:a3:d4:1e:dd:ed:8e:c1:
        93:bc:e6:20:96:34:65:73:ac:bb:85:64:54:49:53:82:da:27:
        8d:86:e5:a3:12:a5:b6:8e:c6:40:87:0b:1a:a4:02:fe:47:a9:
        bf:36:39:b1:54:a7:63:1f:92:b2:1a:4f:9e:05:98:e6:f5:b1:
        16:fb:47:bb:57:1f:31:35:8e:f8:36:d1:36:48:6a:25:c8:0e:
        1c:3d:02:90:cd:cd:1e:68:d2:af:09:e2:69:51:ce:3a:11:67:
        20:40:44:c9:9a:4d:9c:3c:af:07:22:dc:99:77:71:40:46:d7:
        fe:3c:00:30:fc:67:50:89:73:aa:04:4c:ef:e2:44:c1:2e:88:
        83:89:83:80:47:88:47:ca:1b:db:67:7e:e7:a8:0a:54:b8:72:
        f4:96:3f:eb:c1:ba:21:c1:fe:07:eb:ce:4d:b0:80:d6:d9:cf:
        2d:e9:8e:c2:2f:6f:cc:8b:a9:13:fd:48:50:5e:2f:86:cd:9e:
        8b:ad:16:7f:69:ab:b7:7b:7f:c6:d8:49:f8:06:d0:8a:37:71:
        75:d8:4f:3f:02:29:3e:9e:29:cc:f6:e7:c3:10:42:77:6c:34:
        63:f3:be:57
-----BEGIN CERTIFICATE-----
MIIDFzCCAf+gAwIBAgIBATANBgkqhkiG9w0BAQUFADAoMQ4wDAYDVQQKEwVYeVNT
TDEWMBQGA1UEAxMNWHlTU0wgVGVzdCBDQTAeFw0wNzExMjkxOTUwMzBaFw0wOTEx
MjgxOTUwMzBaMCcxDjAMBgNVBAoTBVh5U1NMMRUwEwYDVQQDEwxzZXJ2ZXIxLnRl
c3QwggEiMA0GCSqGSIb3DQEBAQUAA4IBDwAwggEKAoIBAQDGykheK/J5SzIMOAHh
TBzRJLvq3rgv+3oB2ks8EwvREsBp3PM3K/23o7dJ8lfCbfi+kPZ++oA3iRe4TIUi
NvQ2UZ+Ra0gBnrvmjpm+q0UBwm/wD60iuoMGOKqyPOf0qskyMDLbHBqWh+svUw2X
LXU8vHV05QRRZ05OgdAATP9H58PKH10cZQCJC9J4pdPSj1z4/uVUnWSDvBLcOMy0
aD4rxrnQ77HovM9atbMfRwqxD3kGl3M7dfBuJh02iErpZLbmWPiSEqZ8CMx7aUdu
xmWu2DE5MD3KCksswgE+6QXGbh/OOCEi9PUAHhgO1UgabtUigq++CadHAwvTTVJe
NNEVAgMBAAGjTTBLMAkGA1UdEwQCMAAwHQYDVR0OBBYEFPer58BYX+ABxaQmg0TM
HnqRyURlMB8GA1UdIwQYMBaAFPJnsV1fUV7aUYnp2elryouvpS5pMA0GCSqGSIb3
DQEBBQUAA4IBAQAGm41jjLuKKxqHrjonNLwkYPCVEg71TObkH73ig6PUHt3tjsGT
vOYgljRlc6y7hWRUSVOC2ieNhuWjEqW2jsZAhwsapAL+R6m/NjmxVKdjH5KyGk+e
BZjm9bEW+0e7Vx8xNY74NtE2SGolyA4cPQKQzc0eaNKvCeJpUc46EWcgQETJmk2c
PK8HItyZd3FARtf+PAAw/GdQiXOqBEzv4kTBLoiDiYOAR4hHyhvbZ37nqApUuHL0
lj/rwbohwf4H685NsIDW2c8t6Y7CL2/Mi6kT/UhQXi+GzZ6LrRZ/aau3e3/G2En4
BtCKN3F12E8/Aik+ninM9ufDEEJ3bDRj875X
-----END CERTIFICATE-----
