Certificate:
    Data:
        Version: 3 (0x2)
        Serial Number: 2 (0x2)
        Signature Algorithm: sha1WithRSAEncryption
        Issuer: C=NL, O=PolarSSL, CN=PolarSSL Test CA
        Validity
            Not Before: Feb  9 21:12:35 2009 GMT
            Not After : Feb  9 21:12:35 2011 GMT
        Subject: C=NL, O=PolarSSL, CN=PolarSSL Server 2
        Subject Public Key Info:
            Public Key Algorithm: rsaEncryption
            RSA Public Key: (2048 bit)
                Modulus (2048 bit):
                    00:b0:19:1d:43:4a:e1:f1:67:80:7b:44:3f:25:b9:
                    10:f0:f1:ac:af:59:fb:5c:e3:e7:32:49:f3:b7:a0:
                    c1:90:27:83:04:2c:0b:1b:f8:3d:1e:d8:c2:40:67:
                    7a:4a:c0:cd:ab:51:77:34:ee:ae:ac:09:6b:7a:cb:
                    20:23:b3:44:b1:7e:78:a0:95:50:59:36:97:04:57:
                    9a:76:65:e0:08:7a:09:5e:61:16:59:c2:35:eb:e0:
                    a1:fd:92:f5:d5:76:c3:57:f3:64:19:25:ff:a9:e3:
                    48:5a:c9:b7:ad:77:c5:81:24:2d:c7:99:d5:a5:15:
                    12:67:69:00:2a:cd:4e:4f:46:40:51:78:36:b5:26:
                    15:9c:73:9c:dc:bd:f9:fe:ac:62:dc:0a:c8:a0:9e:
                    aa:06:e9:e5:94:c2:bd:2f:46:d4:54:08:d7:d6:98:
                    69:1f:de:63:fc:09:70:f2:99:c8:63:27:f7:00:96:
                    1e:ad:c3:ee:ce:80:e8:75:ce:50:6b:6c:49:c8:c4:
                    92:04:a0:25:7c:19:6e:d6:e0:43:45:2a:d7:2a:44:
                    4a:03:b9:72:17:a4:c7:01:b9:4e:88:8c:82:63:0f:
                    bb:c2:89:98:86:8e:6d:d5:5e:bb:0b:bf:8c:d0:6f:
                    97:15:39:fe:11:c9:cb:de:c5:5b:2c:47:65:07:20:
                    b6:cf
                Exponent: 65537 (0x10001)
        X509v3 extensions:
            X509v3 Basic Constraints: 
                CA:FALSE
            X509v3 Subject Key Identifier: 
                92:0C:8B:3F:E9:D3:EE:6F:08:23:62:0B:D1:68:FD:AC:A6:11:8F:5F
            X509v3 Authority Key Identifier: 
                keyid:CF:22:31:27:91:D8:C2:54:FF:1E:DA:D9:EE:8A:C5:89:32:AD:0C:21

    Signature Algorithm: sha1WithRSAEncryption
        0d:22:8f:f2:f6:17:f7:bb:d8:8e:9d:96:58:37:3d:81:ce:ef:
        bc:ae:e1:8e:70:3a:13:9b:c4:1f:22:8e:6a:90:39:a8:ba:7b:
        53:ff:94:2f:ed:96:4d:56:d7:d7:b6:28:b2:d4:38:90:be:87:
        be:09:22:2b:32:6f:b8:fa:59:c3:fa:c3:8c:d7:85:55:bc:09:
        b1:e6:d3:a7:b2:9f:79:45:5c:2a:d9:b3:34:0f:91:e1:ea:cd:
        30:a0:94:72:c2:02:35:0e:00:6a:0d:3f:46:8c:ca:30:6e:11:
        d4:a3:85:f2:5b:d7:e0:0b:07:65:77:b6:56:46:7e:0a:a2:5d:
        1c:6a:43:b7:60:c5:99:86:ae:8a:ca:cd:ba:7a:2e:5b:79:fb:
        8b:86:7c:ad:eb:66:33:08:4c:c7:f7:86:5e:70:4c:fa:9a:3e:
        4a:53:72:cb:43:03:9c:f6:f7:c9:be:d0:33:81:00:aa:1a:5b:
        5c:71:3a:3b:7a:20:d4:2f:89:97:79:92:29:14:0b:ec:65:ba:
        fb:aa:5a:65:a7:e5:3a:3d:bc:45:61:3f:0d:54:36:27:2c:0e:
        fb:a8:8a:a2:41:96:b1:07:b6:be:0b:8b:08:47:42:a7:5f:00:
        c2:13:a4:01:10:c6:96:23:13:4e:66:49:16:10:23:1e:9d:1b:
        c0:5e:55:6b
-----BEGIN CERTIFICATE-----
MIIDPzCCAiegAwIBAgIBAjANBgkqhkiG9w0BAQUFADA7MQswCQYDVQQGEwJOTDER
MA8GA1UEChMIUG9sYXJTU0wxGTAXBgNVBAMTEFBvbGFyU1NMIFRlc3QgQ0EwHhcN
MDkwMjA5MjExMjM1WhcNMTEwMjA5MjExMjM1WjA8MQswCQYDVQQGEwJOTDERMA8G
A1UEChMIUG9sYXJTU0wxGjAYBgNVBAMTEVBvbGFyU1NMIFNlcnZlciAyMIIBIjAN
BgkqhkiG9w0BAQEFAAOCAQ8AMIIBCgKCAQEAsBkdQ0rh8WeAe0Q/JbkQ8PGsr1n7
XOPnMknzt6DBkCeDBCwLG/g9HtjCQGd6SsDNq1F3NO6urAlressgI7NEsX54oJVQ
WTaXBFeadmXgCHoJXmEWWcI16+Ch/ZL11XbDV/NkGSX/qeNIWsm3rXfFgSQtx5nV
pRUSZ2kAKs1OT0ZAUXg2tSYVnHOc3L35/qxi3ArIoJ6qBunllMK9L0bUVAjX1php
H95j/Alw8pnIYyf3AJYercPuzoDodc5Qa2xJyMSSBKAlfBlu1uBDRSrXKkRKA7ly
F6THAblOiIyCYw+7womYho5t1V67C7+M0G+XFTn+EcnL3sVbLEdlByC2zwIDAQAB
o00wSzAJBgNVHRMEAjAAMB0GA1UdDgQWBBSSDIs/6dPubwgjYgvRaP2sphGPXzAf
BgNVHSMEGDAWgBTPIjEnkdjCVP8e2tnuisWJMq0MITANBgkqhkiG9w0BAQUFAAOC
AQEADSKP8vYX97vYjp2WWDc9gc7vvK7hjnA6E5vEHyKOapA5qLp7U/+UL+2WTVbX
17YostQ4kL6HvgkiKzJvuPpZw/rDjNeFVbwJsebTp7KfeUVcKtmzNA+R4erNMKCU
csICNQ4Aag0/RozKMG4R1KOF8lvX4AsHZXe2VkZ+CqJdHGpDt2DFmYauisrNunou
W3n7i4Z8retmMwhMx/eGXnBM+po+SlNyy0MDnPb3yb7QM4EAqhpbXHE6O3og1C+J
l3mSKRQL7GW6+6paZaflOj28RWE/DVQ2JywO+6iKokGWsQe2vguLCEdCp18AwhOk
ARDGliMTTmZJFhAjHp0bwF5Vaw==
-----END CERTIFICATE-----
