Certificate:
    Data:
        Version: 3 (0x2)
        Serial Number: 2 (0x2)
        Signature Algorithm: sha1WithRSAEncryption
        Issuer: O=XySSL, CN=XySSL Test CA
        Validity
            Not Before: Nov 29 19:50:38 2007 GMT
            Not After : Nov 28 19:50:38 2009 GMT
        Subject: O=XySSL, CN=localhost
        Subject Public Key Info:
            Public Key Algorithm: rsaEncryption
            RSA Public Key: (2048 bit)
                Modulus (2048 bit):
                    00:cc:d4:56:38:49:e6:d6:7f:50:e7:d2:05:c8:99:
                    25:32:45:71:dd:1c:e1:72:3d:68:94:c0:68:e2:2e:
                    95:94:87:03:5b:fc:70:69:c4:b3:a0:94:e6:71:02:
                    18:b1:00:5b:bd:90:ee:08:d0:cd:33:d2:fb:5e:ca:
                    d6:c2:58:ed:f0:51:b7:54:ac:a4:99:22:8b:a3:07:
                    bb:d7:41:14:de:0a:5a:92:9d:2d:08:1c:5f:bf:9b:
                    dc:02:bb:c2:ca:06:b8:f2:8d:04:67:52:ca:9c:3a:
                    15:a3:ba:30:2f:51:07:4d:8c:69:5c:8c:9f:41:56:
                    03:ca:b4:88:b8:ce:0f:f0:28:67:19:dd:4c:96:64:
                    8d:1c:07:b2:c6:cb:58:bf:d9:2b:42:39:ed:28:80:
                    30:61:23:0e:95:d7:27:11:6f:7e:bc:bc:7b:73:01:
                    c3:9a:56:fb:e6:ae:88:a8:96:5a:0f:bb:a5:b1:9d:
                    d5:4a:74:00:26:68:08:3d:67:92:49:58:ab:e2:6a:
                    00:45:83:3b:e1:e3:e6:c7:2c:c0:40:b9:ca:68:0b:
                    a4:8f:ba:6d:53:af:6f:7a:57:84:4f:d8:b0:ae:0c:
                    ce:23:1b:25:32:13:b6:3a:97:74:ca:af:2c:96:76:
                    34:b2:24:6e:39:45:13:ec:be:16:db:b8:41:71:06:
                    00:ed
                Exponent: 65537 (0x10001)
        X509v3 extensions:
            X509v3 Basic Constraints: 
                CA:FALSE
            X509v3 Subject Key Identifier: 
                B1:B0:EA:31:9D:5C:4F:00:7F:CD:0D:1F:78:A9:18:5D:96:DE:AA:B1
            X509v3 Authority Key Identifier: 
                keyid:F2:67:B1:5D:5F:51:5E:DA:51:89:E9:D9:E9:6B:CA:8B:AF:A5:2E:69

    Signature Algorithm: sha1WithRSAEncryption
        2b:9f:5d:f7:8c:42:89:45:d9:19:6f:d1:87:71:c7:74:ec:13:
        c1:c3:7d:51:b5:6d:c3:f8:f4:cc:8a:d5:3b:ee:59:0e:0b:b8:
        bf:7f:a3:4a:69:cb:ea:54:fc:58:98:34:05:0a:62:aa:73:61:
        f2:15:8c:20:93:61:0b:9f:fd:64:d1:7d:87:b3:e5:43:1b:71:
        36:b4:4c:b1:19:38:04:35:e7:f6:52:e5:3c:d0:a5:2d:55:99:
        9e:5b:df:d5:60:6c:59:ac:e4:f7:4e:f7:55:ce:da:1c:9c:5e:
        35:a8:d5:41:47:09:e0:df:7d:75:7e:8e:41:2c:93:34:bf:d2:
        5e:5b:15:15:05:02:4d:24:1e:c4:5b:03:52:ab:0a:ac:6d:72:
        00:3c:de:f9:0f:84:73:dc:b2:e6:52:6c:82:af:26:97:5a:58:
        50:89:a3:c7:d9:5d:a5:8a:3c:e0:e8:3e:63:eb:4f:ff:fd:45:
        b2:ec:a1:fb:45:03:0f:37:d0:a1:8d:42:bf:23:91:66:2e:09:
        61:18:3e:5b:e7:b7:e4:6e:e0:2d:88:0d:c2:2a:e6:19:fa:35:
        05:0d:8b:a4:f3:fb:05:54:98:87:66:5a:a2:f3:56:b5:39:7c:
        1c:28:50:06:4a:3c:60:5a:e8:ec:19:4e:7e:cd:b1:56:5e:a3:
        4d:f8:6c:72
-----BEGIN CERTIFICATE-----
MIIDFDCCAfygAwIBAgIBAjANBgkqhkiG9w0BAQUFADAoMQ4wDAYDVQQKEwVYeVNT
TDEWMBQGA1UEAxMNWHlTU0wgVGVzdCBDQTAeFw0wNzExMjkxOTUwMzhaFw0wOTEx
MjgxOTUwMzhaMCQxDjAMBgNVBAoTBVh5U1NMMRIwEAYDVQQDEwlsb2NhbGhvc3Qw
ggEiMA0GCSqGSIb3DQEBAQUAA4IBDwAwggEKAoIBAQDM1FY4SebWf1Dn0gXImSUy
RXHdHOFyPWiUwGjiLpWUhwNb/HBpxLOglOZxAhixAFu9kO4I0M0z0vteytbCWO3w
UbdUrKSZIoujB7vXQRTeClqSnS0IHF+/m9wCu8LKBrjyjQRnUsqcOhWjujAvUQdN
jGlcjJ9BVgPKtIi4zg/wKGcZ3UyWZI0cB7LGy1i/2StCOe0ogDBhIw6V1ycRb368
vHtzAcOaVvvmroiolloPu6WxndVKdAAmaAg9Z5JJWKviagBFgzvh4+bHLMBAucpo
C6SPum1Tr296V4RP2LCuDM4jGyUyE7Y6l3TKryyWdjSyJG45RRPsvhbbuEFxBgDt
AgMBAAGjTTBLMAkGA1UdEwQCMAAwHQYDVR0OBBYEFLGw6jGdXE8Af80NH3ipGF2W
3qqxMB8GA1UdIwQYMBaAFPJnsV1fUV7aUYnp2elryouvpS5pMA0GCSqGSIb3DQEB
BQUAA4IBAQArn133jEKJRdkZb9GHccd07BPBw31RtW3D+PTMitU77lkOC7i/f6NK
acvqVPxYmDQFCmKqc2HyFYwgk2ELn/1k0X2Hs+VDG3E2tEyxGTgENef2UuU80KUt
VZmeW9/VYGxZrOT3TvdVztocnF41qNVBRwng3311fo5BLJM0v9JeWxUVBQJNJB7E
WwNSqwqsbXIAPN75D4Rz3LLmUmyCryaXWlhQiaPH2V2lijzg6D5j60///UWy7KH7
RQMPN9ChjUK/I5FmLglhGD5b57fkbuAtiA3CKuYZ+jUFDYuk8/sFVJiHZlqi81a1
OXwcKFAGSjxgWujsGU5+zbFWXqNN+Gxy
-----END CERTIFICATE-----
