Certificate:
    Data:
        Version: 3 (0x2)
        Serial Number: 3 (0x3)
        Signature Algorithm: sha1WithRSAEncryption
        Issuer: C=NL, O=PolarSSL, CN=PolarSSL Test CA
        Validity
            Not Before: Jan 14 22:43:40 2009 GMT
            Not After : Jan 14 22:43:40 2011 GMT
        Subject: C=NL, O=PolarSSL, CN=PolarSSL Client 1
        Subject Public Key Info:
            Public Key Algorithm: rsaEncryption
            RSA Public Key: (2048 bit)
                Modulus (2048 bit):
                    00:de:b1:57:8f:86:00:c3:84:99:f9:36:ba:c1:3b:
                    7e:f8:0e:ff:0b:ee:73:e1:4a:69:2b:8f:2e:e6:cf:
                    6e:ca:9c:4a:e6:c3:16:5c:e2:20:0f:ea:23:f2:ef:
                    8f:21:94:42:f7:ec:d4:12:11:3f:1f:e1:9b:96:35:
                    ff:1c:4a:b1:ec:cc:31:09:ba:5a:17:bd:7c:4d:6e:
                    de:64:f9:ee:25:2a:a4:da:66:41:e0:f7:a7:05:1b:
                    aa:0f:16:ff:00:40:bf:0a:10:90:56:d3:60:0e:ec:
                    1b:c4:fc:99:73:e7:59:87:8f:f9:bb:27:d8:67:e7:
                    67:0e:21:04:53:e9:ff:5e:8d:d8:34:7c:e7:b4:5c:
                    18:85:3c:d3:80:d5:76:b6:0c:7d:87:15:fa:97:1e:
                    87:bc:fe:ee:22:0c:44:6c:4a:25:f9:08:16:ab:92:
                    a4:f0:4a:d8:82:d6:2a:0c:21:63:81:4d:a8:32:c0:
                    7f:98:b0:04:3f:64:4c:15:5c:60:fc:b0:c0:e9:69:
                    e5:06:61:f3:56:85:9a:ad:e5:8c:8c:72:5d:d0:81:
                    25:46:ae:6c:0a:d6:64:74:2f:86:b3:08:3b:fe:eb:
                    1b:9c:e0:41:fa:e7:24:aa:aa:e1:d2:3c:bf:54:34:
                    28:2c:bf:92:5a:cd:81:65:c7:da:73:61:be:7a:f6:
                    e8:b1
                Exponent: 65537 (0x10001)
        X509v3 extensions:
            X509v3 Basic Constraints: 
                CA:FALSE
            X509v3 Subject Key Identifier: 
                AA:27:5F:B4:17:D6:BA:24:04:E5:D3:8D:83:AC:65:5D:EB:9D:7E:74
            X509v3 Authority Key Identifier: 
                keyid:80:EE:21:48:46:6B:56:EA:9D:71:32:06:64:2F:4C:C1:B4:2D:A9:2E

    Signature Algorithm: sha1WithRSAEncryption
        93:30:e0:12:65:5a:d8:5b:b8:2d:04:f9:74:b6:4a:40:c5:eb:
        3e:c3:2d:6a:67:bf:08:cc:c1:89:21:fd:7f:8f:55:37:b5:bc:
        27:9d:9b:99:cd:6f:43:f4:90:30:d9:49:68:91:58:ec:8f:5d:
        55:ce:35:63:16:08:dc:ca:8a:f7:e2:9d:84:f9:6d:ae:e1:94:
        6b:11:0d:26:da:3d:60:0b:8b:9b:5d:c8:76:6a:a2:f9:e3:61:
        28:48:d6:0f:8e:aa:bf:65:76:82:c6:6a:e9:23:25:e3:f0:60:
        43:98:62:64:81:cd:02:a9:a1:16:2c:33:18:e1:15:bd:cf:bf:
        e2:0d:3e:fe:a3:5f:33:35:64:18:13:fd:76:71:a7:71:9d:8b:
        e3:35:39:19:f3:4a:5a:0f:5a:c5:ed:63:82:f7:fd:73:94:ba:
        20:ba:29:8f:2d:18:10:fd:2d:b6:cb:9d:49:8e:07:b8:75:34:
        f4:63:a6:03:5b:73:76:82:a3:1c:16:c5:2a:6e:d1:92:d6:c0:
        13:b1:92:f9:2a:74:a1:ae:5f:08:6f:16:d7:43:60:51:37:76:
        aa:51:9f:44:fb:b5:35:0e:c2:3f:62:31:7a:b4:04:2b:29:96:
        cc:98:32:2d:13:42:69:b4:79:72:6e:a9:ad:ed:6a:83:ce:6c:
        9a:13:b0:87
-----BEGIN CERTIFICATE-----
MIIDPzCCAiegAwIBAgIBAzANBgkqhkiG9w0BAQUFADA7MQswCQYDVQQGEwJOTDER
MA8GA1UEChMIUG9sYXJTU0wxGTAXBgNVBAMTEFBvbGFyU1NMIFRlc3QgQ0EwHhcN
MDkwMTE0MjI0MzQwWhcNMTEwMTE0MjI0MzQwWjA8MQswCQYDVQQGEwJOTDERMA8G
A1UEChMIUG9sYXJTU0wxGjAYBgNVBAMTEVBvbGFyU1NMIENsaWVudCAxMIIBIjAN
BgkqhkiG9w0BAQEFAAOCAQ8AMIIBCgKCAQEA3rFXj4YAw4SZ+Ta6wTt++A7/C+5z
4UppK48u5s9uypxK5sMWXOIgD+oj8u+PIZRC9+zUEhE/H+GbljX/HEqx7MwxCbpa
F718TW7eZPnuJSqk2mZB4PenBRuqDxb/AEC/ChCQVtNgDuwbxPyZc+dZh4/5uyfY
Z+dnDiEEU+n/Xo3YNHzntFwYhTzTgNV2tgx9hxX6lx6HvP7uIgxEbEol+QgWq5Kk
8ErYgtYqDCFjgU2oMsB/mLAEP2RMFVxg/LDA6WnlBmHzVoWareWMjHJd0IElRq5s
CtZkdC+Gswg7/usbnOBB+uckqqrh0jy/VDQoLL+SWs2BZcfac2G+evbosQIDAQAB
o00wSzAJBgNVHRMEAjAAMB0GA1UdDgQWBBSqJ1+0F9a6JATl042DrGVd651+dDAf
BgNVHSMEGDAWgBSA7iFIRmtW6p1xMgZkL0zBtC2pLjANBgkqhkiG9w0BAQUFAAOC
AQEAkzDgEmVa2Fu4LQT5dLZKQMXrPsMtame/CMzBiSH9f49VN7W8J52bmc1vQ/SQ
MNlJaJFY7I9dVc41YxYI3MqK9+KdhPltruGUaxENJto9YAuLm13Idmqi+eNhKEjW
D46qv2V2gsZq6SMl4/BgQ5hiZIHNAqmhFiwzGOEVvc+/4g0+/qNfMzVkGBP9dnGn
cZ2L4zU5GfNKWg9axe1jgvf9c5S6ILopjy0YEP0ttsudSY4HuHU09GOmA1tzdoKj
HBbFKm7RktbAE7GS+Sp0oa5fCG8W10NgUTd2qlGfRPu1NQ7CP2IxerQEKymWzJgy
LRNCabR5cm6pre1qg85smhOwhw==
-----END CERTIFICATE-----
