Certificate:
    Data:
        Version: 3 (0x2)
        Serial Number: 3 (0x3)
        Signature Algorithm: sha1WithRSAEncryption
        Issuer: O=XySSL, CN=XySSL Test CA
        Validity
            Not Before: Nov 29 19:50:42 2007 GMT
            Not After : Nov 28 19:50:42 2009 GMT
        Subject: O=XySSL, CN=Test User 1
        Subject Public Key Info:
            Public Key Algorithm: rsaEncryption
            RSA Public Key: (2048 bit)
                Modulus (2048 bit):
                    00:a7:2b:e9:c3:d5:68:7c:e7:4b:23:20:31:c8:0e:
                    be:9f:c8:e6:b6:a7:09:c5:59:67:ab:6d:e9:f3:7e:
                    b2:e7:3b:1c:99:28:33:e0:b8:e9:8b:ee:45:a3:de:
                    91:f8:03:59:34:f1:b6:e0:b3:62:33:45:87:64:8e:
                    59:d3:34:4f:f9:fb:3c:64:53:a2:f2:53:20:97:a3:
                    2b:fe:6d:c4:f3:38:83:02:92:c8:cb:8f:9e:d9:d3:
                    5e:87:36:ec:17:b3:50:5b:68:b7:03:04:e2:90:2f:
                    d4:0e:48:40:b1:ad:11:28:de:8a:a9:4c:df:20:05:
                    47:8a:ef:ba:24:09:fa:ec:f6:d4:f1:0f:a1:31:b7:
                    f0:54:d5:d5:23:19:1e:41:6d:b7:96:17:81:ff:b3:
                    1e:83:92:76:4b:7c:ce:b1:8f:18:b0:69:20:60:f9:
                    41:8b:04:ae:89:84:a8:20:48:ae:f3:1f:50:ec:1c:
                    61:97:bd:81:50:54:61:5d:23:c3:c2:84:ed:19:1b:
                    ee:0f:22:38:28:de:51:04:41:6d:e1:82:43:76:e7:
                    7b:40:fd:84:ea:9e:e8:d8:da:c2:72:c4:31:c6:b0:
                    ca:ce:ac:7b:5c:fa:43:15:5f:41:1c:21:be:dc:96:
                    95:d6:77:16:ef:1d:51:8d:10:65:aa:f5:9e:f8:47:
                    6a:41
                Exponent: 65537 (0x10001)
        X509v3 extensions:
            X509v3 Basic Constraints: 
                CA:FALSE
            X509v3 Subject Key Identifier: 
                F2:C4:96:02:CF:BF:C1:AA:B0:D2:1A:DA:E7:F3:4B:2C:5D:D1:DF:14
            X509v3 Authority Key Identifier: 
                keyid:F2:67:B1:5D:5F:51:5E:DA:51:89:E9:D9:E9:6B:CA:8B:AF:A5:2E:69

    Signature Algorithm: sha1WithRSAEncryption
        ca:29:3f:44:90:8d:9c:c6:0d:f9:e2:a9:50:d8:e5:d6:0a:e0:
        be:6e:48:fb:e8:7a:f4:5f:50:dc:6b:d1:76:a5:f9:88:91:96:
        62:e5:66:89:da:eb:17:01:f7:d0:d2:f7:3b:35:78:dd:80:45:
        d0:64:32:13:67:20:a8:fc:d8:62:e1:44:d4:ae:41:37:2e:e7:
        63:94:37:66:61:3b:38:e9:7d:8a:b6:18:d4:b7:2c:59:ea:46:
        a0:ed:ab:84:79:04:be:da:0f:9e:2d:68:34:a0:06:63:fa:33:
        61:bc:8a:00:07:62:c3:81:11:0d:28:d9:80:8f:51:a2:db:be:
        23:16:a4:37:65:18:72:34:17:c2:a9:63:e3:5f:f4:0e:7c:58:
        5e:e4:a5:44:8f:6b:23:ba:18:4e:e3:0c:25:2a:86:ee:5d:c2:
        a2:e7:92:8d:a8:84:77:ef:b5:9c:af:2c:53:5d:4c:1b:eb:96:
        a4:56:27:f5:bf:cb:82:91:51:6e:8a:f4:49:6a:84:39:44:a3:
        23:7e:d0:83:ce:2b:4a:5f:18:1b:d1:1f:74:14:6f:91:da:1a:
        ee:95:1d:ee:c7:9e:77:a2:df:1c:22:72:c2:08:bc:98:60:a0:
        d6:5f:eb:d8:e8:ad:b3:f5:05:c4:1a:9b:a9:8d:29:83:7e:26:
        62:fa:e3:79
-----BEGIN CERTIFICATE-----
MIIDFjCCAf6gAwIBAgIBAzANBgkqhkiG9w0BAQUFADAoMQ4wDAYDVQQKEwVYeVNT
TDEWMBQGA1UEAxMNWHlTU0wgVGVzdCBDQTAeFw0wNzExMjkxOTUwNDJaFw0wOTEx
MjgxOTUwNDJaMCYxDjAMBgNVBAoTBVh5U1NMMRQwEgYDVQQDEwtUZXN0IFVzZXIg
MTCCASIwDQYJKoZIhvcNAQEBBQADggEPADCCAQoCggEBAKcr6cPVaHznSyMgMcgO
vp/I5ranCcVZZ6tt6fN+suc7HJkoM+C46YvuRaPekfgDWTTxtuCzYjNFh2SOWdM0
T/n7PGRTovJTIJejK/5txPM4gwKSyMuPntnTXoc27BezUFtotwME4pAv1A5IQLGt
ESjeiqlM3yAFR4rvuiQJ+uz21PEPoTG38FTV1SMZHkFtt5YXgf+zHoOSdkt8zrGP
GLBpIGD5QYsEromEqCBIrvMfUOwcYZe9gVBUYV0jw8KE7Rkb7g8iOCjeUQRBbeGC
Q3bne0D9hOqe6NjawnLEMcawys6se1z6QxVfQRwhvtyWldZ3Fu8dUY0QZar1nvhH
akECAwEAAaNNMEswCQYDVR0TBAIwADAdBgNVHQ4EFgQU8sSWAs+/waqw0hra5/NL
LF3R3xQwHwYDVR0jBBgwFoAU8mexXV9RXtpRienZ6WvKi6+lLmkwDQYJKoZIhvcN
AQEFBQADggEBAMopP0SQjZzGDfniqVDY5dYK4L5uSPvoevRfUNxr0Xal+YiRlmLl
Zona6xcB99DS9zs1eN2ARdBkMhNnIKj82GLhRNSuQTcu52OUN2ZhOzjpfYq2GNS3
LFnqRqDtq4R5BL7aD54taDSgBmP6M2G8igAHYsOBEQ0o2YCPUaLbviMWpDdlGHI0
F8KpY+Nf9A58WF7kpUSPayO6GE7jDCUqhu5dwqLnko2ohHfvtZyvLFNdTBvrlqRW
J/W/y4KRUW6K9ElqhDlEoyN+0IPOK0pfGBvRH3QUb5HaGu6VHe7Hnnei3xwicsII
vJhgoNZf69jorbP1BcQam6mNKYN+JmL643k=
-----END CERTIFICATE-----
