Certificate:
    Data:
        Version: 3 (0x2)
        Serial Number: 4 (0x4)
        Signature Algorithm: sha1WithRSAEncryption
        Issuer: C=NL, O=PolarSSL, CN=PolarSSL Test CA
        Validity
            Not Before: Jan 14 22:43:42 2009 GMT
            Not After : Jan 14 22:43:42 2011 GMT
        Subject: C=NL, O=PolarSSL, CN=PolarSSL Client 2
        Subject Public Key Info:
            Public Key Algorithm: rsaEncryption
            RSA Public Key: (2048 bit)
                Modulus (2048 bit):
                    00:ba:70:94:3f:4d:d7:04:0b:5b:61:ea:21:8d:1d:
                    c2:8c:b5:df:6e:85:b0:14:41:b6:79:4e:90:87:78:
                    99:9f:65:8e:78:80:63:51:fd:a2:de:31:4b:c3:be:
                    dc:d5:fd:b2:ba:44:32:d5:a9:62:41:cc:7a:87:ef:
                    57:21:2c:93:15:2d:68:95:7e:c1:ce:ab:e7:ed:45:
                    6a:cf:9c:b6:ef:46:a0:10:25:a7:e1:21:d6:bd:bf:
                    6f:9a:51:4f:21:2f:6a:b1:bd:89:a3:df:fb:36:ee:
                    d6:0f:c1:c8:af:f9:47:dc:0f:76:a5:ad:b3:36:db:
                    a2:4f:bf:fa:41:6a:d4:b4:97:81:49:42:d6:fd:8d:
                    a1:e7:92:ba:fd:99:f6:42:9e:e8:5e:db:e0:bf:90:
                    4c:ea:e3:81:df:22:24:a4:3c:74:05:24:c3:67:78:
                    ee:00:03:75:99:4a:ae:e5:4c:8b:a9:49:5b:15:ce:
                    4a:0a:ee:b9:df:e1:8a:61:e0:ae:1e:96:5a:15:07:
                    e9:99:e0:11:08:f8:b2:3e:8f:fa:53:3b:e0:7f:56:
                    34:bf:e2:3f:1a:d8:d4:69:4f:f4:e5:09:b2:3e:96:
                    a9:9b:0c:6f:f4:46:d1:37:12:1d:b2:a7:16:05:0c:
                    15:ec:88:64:a1:6e:0e:b2:77:2f:a9:f3:df:b1:03:
                    2d:03
                Exponent: 65537 (0x10001)
        X509v3 extensions:
            X509v3 Basic Constraints: 
                CA:FALSE
            X509v3 Subject Key Identifier: 
                0A:D7:6D:86:0B:FA:78:67:00:E5:D0:79:80:58:06:4F:A7:D3:DD:B2
            X509v3 Authority Key Identifier: 
                keyid:80:EE:21:48:46:6B:56:EA:9D:71:32:06:64:2F:4C:C1:B4:2D:A9:2E

    Signature Algorithm: sha1WithRSAEncryption
        58:fc:d6:71:a8:c2:4e:d8:38:17:38:f1:33:9b:96:62:4a:15:
        6b:f9:63:03:a7:21:b0:2a:75:18:16:fc:86:6d:84:86:a7:81:
        8c:a7:86:fa:34:74:ed:ef:e4:bd:09:29:00:ea:ae:fd:52:2e:
        20:b4:fd:93:af:de:fd:b8:b1:a0:4a:d7:01:9b:a1:3f:6d:be:
        06:cf:c1:52:32:52:cd:23:6c:0b:d1:0c:04:cb:01:b0:e8:d8:
        f9:8d:fd:35:18:16:f0:3b:cb:40:ee:ae:57:af:e8:ce:5c:2c:
        57:18:c1:bd:29:bf:92:03:14:dd:4f:bd:fd:04:7f:d6:ea:52:
        5b:6b:4f:1e:a8:a4:b2:ed:42:e6:08:42:c9:b1:c7:fc:d2:34:
        35:5d:72:32:89:32:cf:84:a5:a1:ac:c0:6f:f9:c3:4e:40:96:
        a8:15:14:0a:a3:42:d6:b1:d8:bb:99:20:f5:7c:c2:cc:09:92:
        a7:33:2c:ed:80:d6:23:32:99:7b:13:d1:a0:67:05:78:35:0d:
        b3:7a:93:80:ea:d7:d2:7c:e4:74:00:03:04:7d:d6:c0:c1:78:
        d1:84:7f:19:b9:ec:9c:d5:81:fc:25:13:16:36:bd:bc:1c:56:
        c9:f8:82:90:ef:21:ea:58:f9:ab:61:a4:cd:fb:f3:a5:07:70:
        1b:03:71:52
-----BEGIN CERTIFICATE-----
MIIDPzCCAiegAwIBAgIBBDANBgkqhkiG9w0BAQUFADA7MQswCQYDVQQGEwJOTDER
MA8GA1UEChMIUG9sYXJTU0wxGTAXBgNVBAMTEFBvbGFyU1NMIFRlc3QgQ0EwHhcN
MDkwMTE0MjI0MzQyWhcNMTEwMTE0MjI0MzQyWjA8MQswCQYDVQQGEwJOTDERMA8G
A1UEChMIUG9sYXJTU0wxGjAYBgNVBAMTEVBvbGFyU1NMIENsaWVudCAyMIIBIjAN
BgkqhkiG9w0BAQEFAAOCAQ8AMIIBCgKCAQEAunCUP03XBAtbYeohjR3CjLXfboWw
FEG2eU6Qh3iZn2WOeIBjUf2i3jFLw77c1f2yukQy1aliQcx6h+9XISyTFS1olX7B
zqvn7UVqz5y270agECWn4SHWvb9vmlFPIS9qsb2Jo9/7Nu7WD8HIr/lH3A92pa2z
NtuiT7/6QWrUtJeBSULW/Y2h55K6/Zn2Qp7oXtvgv5BM6uOB3yIkpDx0BSTDZ3ju
AAN1mUqu5UyLqUlbFc5KCu653+GKYeCuHpZaFQfpmeARCPiyPo/6Uzvgf1Y0v+I/
GtjUaU/05QmyPpapmwxv9EbRNxIdsqcWBQwV7IhkoW4OsncvqfPfsQMtAwIDAQAB
o00wSzAJBgNVHRMEAjAAMB0GA1UdDgQWBBQK122GC/p4ZwDl0HmAWAZPp9PdsjAf
BgNVHSMEGDAWgBSA7iFIRmtW6p1xMgZkL0zBtC2pLjANBgkqhkiG9w0BAQUFAAOC
AQEAWPzWcajCTtg4FzjxM5uWYkoVa/ljA6chsCp1GBb8hm2EhqeBjKeG+jR07e/k
vQkpAOqu/VIuILT9k6/e/bixoErXAZuhP22+Bs/BUjJSzSNsC9EMBMsBsOjY+Y39
NRgW8DvLQO6uV6/ozlwsVxjBvSm/kgMU3U+9/QR/1upSW2tPHqiksu1C5ghCybHH
/NI0NV1yMokyz4SloazAb/nDTkCWqBUUCqNC1rHYu5kg9XzCzAmSpzMs7YDWIzKZ
exPRoGcFeDUNs3qTgOrX0nzkdAADBH3WwMF40YR/GbnsnNWB/CUTFja9vBxWyfiC
kO8h6lj5q2GkzfvzpQdwGwNxUg==
-----END CERTIFICATE-----
