Certificate:
    Data:
        Version: 3 (0x2)
        Serial Number: 4 (0x4)
        Signature Algorithm: sha1WithRSAEncryption
        Issuer: C=NL, O=PolarSSL, CN=PolarSSL Test CA
        Validity
            Not Before: Feb  9 21:12:35 2009 GMT
            Not After : Feb  9 21:12:35 2011 GMT
        Subject: C=NL, O=PolarSSL, CN=PolarSSL Client 2
        Subject Public Key Info:
            Public Key Algorithm: rsaEncryption
            RSA Public Key: (2048 bit)
                Modulus (2048 bit):
                    00:a1:d7:d3:0c:2c:ff:bc:85:83:e2:b2:3c:c2:5b:
                    15:fe:92:7c:09:b8:7b:de:90:39:19:4d:51:26:1b:
                    c8:bd:d3:9f:64:ab:66:79:2e:1e:2c:3f:d8:07:09:
                    f0:49:34:9e:f7:de:dd:4a:67:b5:96:bc:9e:7a:bc:
                    6a:e4:15:f2:45:0c:3d:26:32:33:a7:e5:fe:f1:19:
                    e0:e3:1d:86:30:a8:e4:b1:5f:60:65:56:49:18:55:
                    4c:ee:f2:0b:3b:64:ce:22:b4:2d:d6:18:e1:f5:96:
                    03:51:9c:f4:ff:a8:26:23:ce:9a:27:e5:21:83:16:
                    b3:cc:a7:5b:e1:6d:67:2c:5e:e1:23:bb:56:29:1f:
                    2e:e4:ff:c2:01:43:b4:b9:5a:e4:6d:2b:a7:31:fb:
                    ee:0b:db:98:49:75:53:37:75:1d:92:75:d5:dc:d7:
                    2c:e1:e7:2a:c4:be:15:f6:ff:4e:a4:38:87:cb:66:
                    78:ab:4d:ba:4a:e0:aa:15:16:74:2e:9b:c8:93:96:
                    ea:bf:c6:6c:40:54:39:db:bb:54:4c:dc:9d:53:4a:
                    00:86:5b:ef:fd:4a:59:c6:1e:b8:e4:69:01:03:3b:
                    f1:3a:03:0a:d4:9f:26:50:60:9b:8b:3d:74:13:07:
                    6e:f9:cd:e7:d6:ea:97:e1:0f:8b:08:99:ec:c4:29:
                    70:33
                Exponent: 65537 (0x10001)
        X509v3 extensions:
            X509v3 Basic Constraints: 
                CA:FALSE
            X509v3 Subject Key Identifier: 
                8C:06:38:93:D9:14:06:29:DF:CC:CD:71:11:43:37:8E:F0:43:38:1B
            X509v3 Authority Key Identifier: 
                keyid:CF:22:31:27:91:D8:C2:54:FF:1E:DA:D9:EE:8A:C5:89:32:AD:0C:21

    Signature Algorithm: sha1WithRSAEncryption
        66:b6:b9:b3:22:9f:81:09:92:f2:9f:22:ec:df:47:3c:c5:18:
        e4:01:83:4f:69:5b:11:88:73:71:a6:ef:25:95:d1:23:e0:4d:
        9a:25:bb:d6:ac:a8:88:86:cc:06:6e:a9:c9:47:2c:06:a5:dc:
        b2:4a:b6:5b:6c:4c:0f:f9:5c:bc:b4:e8:d2:4a:79:d5:27:67:
        9f:2c:38:ef:5b:54:b4:bc:13:0e:ba:72:73:54:37:3d:39:fc:
        e1:17:eb:59:3e:ec:b8:83:56:d1:cb:32:ce:13:01:88:61:70:
        8e:f9:ce:97:95:46:38:ba:a1:77:8e:ee:a4:86:a3:30:12:b7:
        10:df:7b:74:18:45:3c:57:aa:54:da:e5:c5:c0:b5:7b:4d:5d:
        c0:c2:e7:0d:d0:f2:ab:36:5b:02:a8:3e:1f:6e:4a:aa:b2:05:
        9f:35:aa:d6:26:f1:5f:27:a2:97:6e:9c:56:95:1e:4e:fb:5b:
        4b:4f:58:f7:7b:8d:54:1c:e5:d3:4a:78:92:58:f5:a2:5f:98:
        63:54:d7:fd:6d:14:5f:49:12:99:d0:32:d5:2a:c0:c6:97:a4:
        d1:f5:c2:9d:dc:b4:6c:f0:ba:fb:e7:3e:f5:86:61:bb:86:e9:
        e4:99:0a:ed:ee:dc:fa:84:ea:87:e0:c3:7e:76:e4:17:a3:58:
        25:07:82:bf
-----BEGIN CERTIFICATE-----
MIIDPzCCAiegAwIBAgIBBDANBgkqhkiG9w0BAQUFADA7MQswCQYDVQQGEwJOTDER
MA8GA1UEChMIUG9sYXJTU0wxGTAXBgNVBAMTEFBvbGFyU1NMIFRlc3QgQ0EwHhcN
MDkwMjA5MjExMjM1WhcNMTEwMjA5MjExMjM1WjA8MQswCQYDVQQGEwJOTDERMA8G
A1UEChMIUG9sYXJTU0wxGjAYBgNVBAMTEVBvbGFyU1NMIENsaWVudCAyMIIBIjAN
BgkqhkiG9w0BAQEFAAOCAQ8AMIIBCgKCAQEAodfTDCz/vIWD4rI8wlsV/pJ8Cbh7
3pA5GU1RJhvIvdOfZKtmeS4eLD/YBwnwSTSe997dSme1lryeerxq5BXyRQw9JjIz
p+X+8Rng4x2GMKjksV9gZVZJGFVM7vILO2TOIrQt1hjh9ZYDUZz0/6gmI86aJ+Uh
gxazzKdb4W1nLF7hI7tWKR8u5P/CAUO0uVrkbSunMfvuC9uYSXVTN3UdknXV3Ncs
4ecqxL4V9v9OpDiHy2Z4q026SuCqFRZ0LpvIk5bqv8ZsQFQ527tUTNydU0oAhlvv
/UpZxh645GkBAzvxOgMK1J8mUGCbiz10Ewdu+c3n1uqX4Q+LCJnsxClwMwIDAQAB
o00wSzAJBgNVHRMEAjAAMB0GA1UdDgQWBBSMBjiT2RQGKd/MzXERQzeO8EM4GzAf
BgNVHSMEGDAWgBTPIjEnkdjCVP8e2tnuisWJMq0MITANBgkqhkiG9w0BAQUFAAOC
AQEAZra5syKfgQmS8p8i7N9HPMUY5AGDT2lbEYhzcabvJZXRI+BNmiW71qyoiIbM
Bm6pyUcsBqXcskq2W2xMD/lcvLTo0kp51Sdnnyw471tUtLwTDrpyc1Q3PTn84Rfr
WT7suINW0csyzhMBiGFwjvnOl5VGOLqhd47upIajMBK3EN97dBhFPFeqVNrlxcC1
e01dwMLnDdDyqzZbAqg+H25KqrIFnzWq1ibxXyeil26cVpUeTvtbS09Y93uNVBzl
00p4klj1ol+YY1TX/W0UX0kSmdAy1SrAxpek0fXCndy0bPC6++c+9YZhu4bp5JkK
7e7c+oTqh+DDfnbkF6NYJQeCvw==
-----END CERTIFICATE-----
