Certificate:
    Data:
        Version: 3 (0x2)
        Serial Number: 5 (0x5)
        Signature Algorithm: sha224WithRSAEncryption
        Issuer: C=NL, O=PolarSSL, CN=PolarSSL Test CA
        Validity
            Not Before: Feb  9 21:12:35 2009 GMT
            Not After : Feb  9 21:12:35 2011 GMT
        Subject: C=NL, O=PolarSSL, CN=PolarSSL Cert SHA224
        Subject Public Key Info:
            Public Key Algorithm: rsaEncryption
            RSA Public Key: (2048 bit)
                Modulus (2048 bit):
                    00:ae:00:73:61:1b:bb:0c:65:6c:d0:9b:f3:86:79:
                    67:a9:1b:7d:ba:88:de:36:8b:07:ff:91:bf:23:cb:
                    ce:67:c5:1d:5b:6c:8c:a8:6e:46:d4:66:10:2b:01:
                    e3:d6:a7:2a:3a:46:b4:f8:fb:04:16:f2:a9:b2:37:
                    ec:73:78:2e:d8:58:25:b8:26:86:da:8c:5a:f3:28:
                    20:33:cb:36:93:ba:16:34:a2:b5:96:d8:09:2e:7e:
                    74:02:17:20:dd:b4:f7:c6:bc:c7:6f:fa:b1:31:93:
                    9f:74:d4:ab:56:2f:a4:2e:08:1c:94:16:fc:55:ec:
                    6a:15:3b:61:93:22:d6:5a:e8:4c:9f:5e:2d:6f:b4:
                    9d:c2:8e:f5:4e:37:1f:66:aa:8d:19:d2:d9:ea:20:
                    63:48:7c:7e:00:e9:28:ac:40:49:0e:69:b5:06:ed:
                    44:57:88:44:48:dd:6d:3e:6d:1b:3b:cb:4d:99:ad:
                    62:4d:6b:d1:8e:94:b3:b5:19:b9:6f:97:ef:f1:fe:
                    61:1c:eb:5d:ee:55:7f:a0:11:97:85:f7:8f:ef:5d:
                    a2:ba:78:da:3f:a5:3c:01:46:95:d3:b6:98:c9:1c:
                    49:28:f8:9c:e3:15:1e:b3:71:63:98:a0:32:9b:66:
                    58:86:f3:62:a4:6c:31:ec:44:03:0a:32:a7:ec:ad:
                    f8:c3
                Exponent: 65537 (0x10001)
        X509v3 extensions:
            X509v3 Basic Constraints: 
                CA:FALSE
            X509v3 Subject Key Identifier: 
                05:1D:6A:93:67:7B:A3:13:00:85:45:5B:3C:4A:68:CC:E0:88:B1:B3
            X509v3 Authority Key Identifier: 
                keyid:CF:22:31:27:91:D8:C2:54:FF:1E:DA:D9:EE:8A:C5:89:32:AD:0C:21

    Signature Algorithm: sha224WithRSAEncryption
        76:40:3b:c3:40:ab:66:45:79:9e:ca:85:81:f8:b9:95:34:d3:
        ff:8e:7c:c9:dc:6a:43:bf:28:da:21:d1:16:04:f3:c8:0b:8d:
        87:99:a0:af:3b:3b:d8:f1:cb:1b:c1:ce:b1:6f:d4:27:f3:f4:
        60:d5:27:f8:8b:0e:7d:4d:fa:b4:61:1b:23:58:9c:4f:9a:76:
        34:d4:2c:0c:fb:8b:a4:66:bb:8e:b4:ba:bd:fe:a4:d2:d3:04:
        4f:cc:b8:17:5e:0c:a7:a8:db:d0:7f:c2:82:15:33:28:e7:e8:
        5d:64:65:17:94:ba:83:73:2a:31:09:c8:ff:26:60:73:9b:03:
        9f:cb:02:62:56:1e:d8:43:c4:ce:52:3b:0f:75:cd:0e:36:43:
        01:42:4e:06:1d:a4:ec:f6:e8:98:f2:79:b8:25:22:eb:bc:67:
        06:2c:5f:ba:04:06:fe:d2:81:8b:51:e8:05:77:c7:f8:0a:56:
        cb:d3:cf:e9:9c:7e:ae:06:73:f5:55:f6:ef:d4:b6:bb:48:18:
        11:10:09:b1:be:b6:c1:1f:6a:b2:e7:b1:4c:27:a6:9b:56:fb:
        ec:be:b6:ea:ce:a3:d9:7d:d3:41:d4:6e:3a:4e:60:ae:f2:87:
        06:6d:7f:42:a0:af:71:dd:f1:eb:94:b7:c8:cf:f9:f3:51:c7:
        3c:70:4c:c0
-----BEGIN CERTIFICATE-----
MIIDQjCCAiqgAwIBAgIBBTANBgkqhkiG9w0BAQ4FADA7MQswCQYDVQQGEwJOTDER
MA8GA1UEChMIUG9sYXJTU0wxGTAXBgNVBAMTEFBvbGFyU1NMIFRlc3QgQ0EwHhcN
MDkwMjA5MjExMjM1WhcNMTEwMjA5MjExMjM1WjA/MQswCQYDVQQGEwJOTDERMA8G
A1UEChMIUG9sYXJTU0wxHTAbBgNVBAMTFFBvbGFyU1NMIENlcnQgU0hBMjI0MIIB
IjANBgkqhkiG9w0BAQEFAAOCAQ8AMIIBCgKCAQEArgBzYRu7DGVs0JvzhnlnqRt9
uojeNosH/5G/I8vOZ8UdW2yMqG5G1GYQKwHj1qcqOka0+PsEFvKpsjfsc3gu2Fgl
uCaG2oxa8yggM8s2k7oWNKK1ltgJLn50Ahcg3bT3xrzHb/qxMZOfdNSrVi+kLggc
lBb8VexqFTthkyLWWuhMn14tb7Sdwo71TjcfZqqNGdLZ6iBjSHx+AOkorEBJDmm1
Bu1EV4hESN1tPm0bO8tNma1iTWvRjpSztRm5b5fv8f5hHOtd7lV/oBGXhfeP712i
unjaP6U8AUaV07aYyRxJKPic4xUes3FjmKAym2ZYhvNipGwx7EQDCjKn7K34wwID
AQABo00wSzAJBgNVHRMEAjAAMB0GA1UdDgQWBBQFHWqTZ3ujEwCFRVs8SmjM4Iix
szAfBgNVHSMEGDAWgBTPIjEnkdjCVP8e2tnuisWJMq0MITANBgkqhkiG9w0BAQ4F
AAOCAQEAdkA7w0CrZkV5nsqFgfi5lTTT/458ydxqQ78o2iHRFgTzyAuNh5mgrzs7
2PHLG8HOsW/UJ/P0YNUn+IsOfU36tGEbI1icT5p2NNQsDPuLpGa7jrS6vf6k0tME
T8y4F14Mp6jb0H/CghUzKOfoXWRlF5S6g3MqMQnI/yZgc5sDn8sCYlYe2EPEzlI7
D3XNDjZDAUJOBh2k7PbomPJ5uCUi67xnBixfugQG/tKBi1HoBXfH+ApWy9PP6Zx+
rgZz9VX279S2u0gYERAJsb62wR9qsuexTCemm1b77L626s6j2X3TQdRuOk5grvKH
Bm1/QqCvcd3x65S3yM/581HHPHBMwA==
-----END CERTIFICATE-----
