Certificate:
    Data:
        Version: 3 (0x2)
        Serial Number: 12 (0xc)
        Signature Algorithm: sha1WithRSAEncryption
        Issuer: C=NL, O=PolarSSL, CN=PolarSSL Test CA
        Validity
            Not Before: Jul 12 10:56:59 2009 GMT
            Not After : Jul 12 10:56:59 2011 GMT
        Subject: C=NL, O=PolarSSL, CN=PolarSSL Cert SHA1
        Subject Public Key Info:
            Public Key Algorithm: rsaEncryption
            RSA Public Key: (2048 bit)
                Modulus (2048 bit):
                    00:dc:13:74:81:c6:12:f6:67:5d:a1:66:72:ed:dc:
                    79:b6:58:5c:32:58:b3:d4:14:fd:6c:02:61:9e:0b:
                    99:46:63:a3:0a:41:d4:42:33:21:e6:ed:43:07:5a:
                    1d:a2:3b:64:29:a8:2a:c1:66:28:00:59:d8:0c:49:
                    2d:30:b7:3d:8c:bb:60:62:31:83:27:7f:4b:95:92:
                    2e:a0:d6:c6:84:94:4b:b3:e4:a6:cc:ff:32:3a:c5:
                    ec:4c:c9:24:58:bf:b3:33:77:6a:b5:17:8b:02:10:
                    29:8e:95:aa:91:60:17:43:42:87:a8:7c:da:09:83:
                    98:9d:7a:65:5e:20:52:07:2e:65:a5:31:fd:d9:74:
                    1e:00:c9:ae:9d:81:56:8b:08:0a:f5:1e:9c:dc:a2:
                    5e:6c:db:ff:11:83:15:f4:d1:24:57:9b:0f:eb:35:
                    c9:f1:aa:46:4e:74:7f:fe:1d:b0:91:1f:89:4a:84:
                    cb:df:75:e3:cd:77:82:62:09:e5:9f:6d:29:de:2e:
                    25:d8:48:b6:20:be:51:97:4c:2d:20:65:2d:2a:50:
                    9e:24:5d:72:95:e0:a2:06:41:8c:61:e4:50:57:74:
                    96:b1:29:b5:a1:88:37:f1:5c:9e:b2:9e:8e:83:8d:
                    72:3b:b5:5c:fe:bb:12:89:72:5c:a1:f9:d8:18:29:
                    b2:27
                Exponent: 65537 (0x10001)
        X509v3 extensions:
            X509v3 Basic Constraints: 
                CA:FALSE
            X509v3 Subject Key Identifier: 
                B7:51:D4:E5:20:D5:45:54:F4:C5:51:1B:E0:82:B5:61:05:AF:9B:B6
            X509v3 Authority Key Identifier: 
                keyid:CF:22:31:27:91:D8:C2:54:FF:1E:DA:D9:EE:8A:C5:89:32:AD:0C:21

    Signature Algorithm: sha1WithRSAEncryption
        0b:3d:49:a6:2a:23:fa:f1:5d:dd:c0:7e:b4:a4:47:cb:78:a8:
        58:62:e5:80:e2:50:19:41:0e:22:98:fc:51:40:f1:64:88:4c:
        2f:90:f9:eb:5e:93:51:bc:53:31:df:86:07:b0:bb:43:57:4d:
        dc:0e:4d:6a:67:90:57:e1:3f:3c:df:a9:f6:fb:02:c8:fc:88:
        91:35:c9:6c:a1:dd:2d:4f:0e:36:e9:d2:6b:1d:9b:3e:e9:01:
        bd:11:cd:e0:fa:c3:8f:8d:07:ae:e4:aa:a2:80:3d:ad:10:02:
        d9:f2:e8:c5:37:3f:95:f9:fa:b0:c6:57:b7:ad:16:a6:c8:ec:
        f8:d5:46:d4:26:53:5e:33:52:ff:aa:c0:b8:c2:3c:b5:cb:30:
        d9:6c:6f:6e:68:c8:5c:61:62:28:51:72:3b:57:17:1d:05:8c:
        d8:4f:63:f4:51:25:e4:4d:37:3c:2e:dc:5e:d9:c9:e2:b0:16:
        f9:25:cb:02:65:28:4f:b7:b6:16:c0:d9:04:1c:0e:b6:70:79:
        3b:a6:aa:42:ee:37:97:3c:11:26:39:7b:b9:be:29:0c:06:e6:
        f7:05:9f:38:19:22:d5:6e:44:52:1b:24:c8:6f:1f:8c:bc:71:
        c2:7a:c3:17:ac:58:fd:c6:2e:5c:1c:83:c9:bc:a3:c7:81:1a:
        09:d5:0d:49
-----BEGIN CERTIFICATE-----
MIIDQDCCAiigAwIBAgIBDDANBgkqhkiG9w0BAQUFADA7MQswCQYDVQQGEwJOTDER
MA8GA1UEChMIUG9sYXJTU0wxGTAXBgNVBAMTEFBvbGFyU1NMIFRlc3QgQ0EwHhcN
MDkwNzEyMTA1NjU5WhcNMTEwNzEyMTA1NjU5WjA9MQswCQYDVQQGEwJOTDERMA8G
A1UEChMIUG9sYXJTU0wxGzAZBgNVBAMTElBvbGFyU1NMIENlcnQgU0hBMTCCASIw
DQYJKoZIhvcNAQEBBQADggEPADCCAQoCggEBANwTdIHGEvZnXaFmcu3cebZYXDJY
s9QU/WwCYZ4LmUZjowpB1EIzIebtQwdaHaI7ZCmoKsFmKABZ2AxJLTC3PYy7YGIx
gyd/S5WSLqDWxoSUS7Pkpsz/MjrF7EzJJFi/szN3arUXiwIQKY6VqpFgF0NCh6h8
2gmDmJ16ZV4gUgcuZaUx/dl0HgDJrp2BVosICvUenNyiXmzb/xGDFfTRJFebD+s1
yfGqRk50f/4dsJEfiUqEy9914813gmIJ5Z9tKd4uJdhItiC+UZdMLSBlLSpQniRd
cpXgogZBjGHkUFd0lrEptaGIN/FcnrKejoONcju1XP67EolyXKH52BgpsicCAwEA
AaNNMEswCQYDVR0TBAIwADAdBgNVHQ4EFgQUt1HU5SDVRVT0xVEb4IK1YQWvm7Yw
HwYDVR0jBBgwFoAUzyIxJ5HYwlT/HtrZ7orFiTKtDCEwDQYJKoZIhvcNAQEFBQAD
ggEBAAs9SaYqI/rxXd3AfrSkR8t4qFhi5YDiUBlBDiKY/FFA8WSITC+Q+etek1G8
UzHfhgewu0NXTdwOTWpnkFfhPzzfqfb7Asj8iJE1yWyh3S1PDjbp0msdmz7pAb0R
zeD6w4+NB67kqqKAPa0QAtny6MU3P5X5+rDGV7etFqbI7PjVRtQmU14zUv+qwLjC
PLXLMNlsb25oyFxhYihRcjtXFx0FjNhPY/RRJeRNNzwu3F7ZyeKwFvklywJlKE+3
thbA2QQcDrZweTumqkLuN5c8ESY5e7m+KQwG5vcFnzgZItVuRFIbJMhvH4y8ccJ6
wxesWP3GLlwcg8m8o8eBGgnVDUk=
-----END CERTIFICATE-----
