Certificate:
    Data:
        Version: 3 (0x2)
        Serial Number: 1 (0x1)
        Signature Algorithm: sha1WithRSAEncryption
        Issuer: C=NL, O=PolarSSL, CN=PolarSSL Test CA
        Validity
            Not Before: Jan 14 22:43:35 2009 GMT
            Not After : Jan 14 22:43:35 2011 GMT
        Subject: C=NL, O=PolarSSL, CN=PolarSSL Server 1
        Subject Public Key Info:
            Public Key Algorithm: rsaEncryption
            RSA Public Key: (2048 bit)
                Modulus (2048 bit):
                    00:ad:68:ba:12:67:43:a7:11:2c:e0:d8:d7:a1:9b:
                    89:af:a7:a3:92:2f:20:57:e9:bc:ae:89:f8:7c:86:
                    00:48:08:cb:0b:b6:fc:d0:08:e7:fb:14:67:e4:2b:
                    68:b2:0e:7e:01:d0:01:f7:22:2a:43:67:48:2b:88:
                    5c:af:8c:1a:d2:4d:cf:18:c2:3e:e1:15:22:bc:d4:
                    b1:7c:7c:b8:73:f3:ca:11:d2:3d:df:7d:c4:bd:fb:
                    f2:fd:bb:e6:4e:ce:8d:c4:1b:c2:2a:e0:44:17:be:
                    35:3e:25:db:d8:b0:98:9e:1d:68:38:fe:99:2a:5f:
                    2b:e7:d0:52:4a:bf:f7:ed:6d:b3:14:b5:4f:c5:05:
                    f3:06:2e:2f:b1:2b:9b:c7:fa:c7:4d:a6:16:60:f7:
                    b2:e7:be:9a:b0:db:8d:eb:38:7a:2e:e1:26:25:36:
                    08:9a:d9:7b:60:76:c4:7d:34:b3:b4:7e:ea:0b:a3:
                    5d:5d:e1:12:88:d8:82:a1:25:25:44:de:11:48:46:
                    a4:ab:13:df:e3:88:b0:b1:84:77:ce:0d:00:48:bb:
                    aa:46:0b:13:08:9e:51:69:dc:ad:e6:c5:9b:97:d1:
                    2c:5a:c4:06:fe:c0:4f:e2:7a:82:ac:3e:a7:0d:6a:
                    54:0c:46:80:a4:c7:e9:29:a4:f3:cd:93:d3:e0:b4:
                    38:15
                Exponent: 65537 (0x10001)
        X509v3 extensions:
            X509v3 Basic Constraints: 
                CA:FALSE
            X509v3 Subject Key Identifier: 
                D4:F8:74:59:8B:5F:AE:67:1C:33:7B:4B:F2:D4:EF:82:6A:E6:21:08
            X509v3 Authority Key Identifier: 
                keyid:80:EE:21:48:46:6B:56:EA:9D:71:32:06:64:2F:4C:C1:B4:2D:A9:2E

    Signature Algorithm: sha1WithRSAEncryption
        82:5b:53:0c:3c:00:13:cd:05:af:be:47:aa:b1:4a:f4:00:da:
        d3:95:91:ef:97:6a:a8:c4:01:b9:33:6f:9f:d7:7f:6e:32:d6:
        64:2d:49:d7:fd:d9:98:c2:7b:81:2d:2e:0a:a4:49:69:97:ea:
        6e:3b:65:f4:5a:9e:a8:e0:b6:51:53:37:b9:d2:e3:07:8b:5d:
        03:7c:4a:a8:75:c9:2f:c3:e7:78:bf:00:78:a2:64:b9:59:ee:
        9c:0d:36:c7:f8:1a:66:91:c7:c9:50:c1:9a:8d:f3:59:9e:38:
        35:6b:81:9f:74:28:37:47:29:c4:24:dc:64:3e:0a:51:17:26:
        e9:3e:01:0a:8e:9c:15:a0:8d:5c:82:3d:11:f6:3a:20:d7:30:
        f8:ed:7b:24:54:4a:8a:93:57:9d:6f:bc:d0:28:f3:86:7c:9e:
        28:b5:95:2d:96:59:35:b2:9b:ae:5b:a6:4b:ad:52:e0:8a:04:
        f4:5f:11:ed:14:1e:66:83:77:80:c3:d7:9d:fe:93:35:16:0a:
        d1:9e:12:28:10:35:f4:b9:6b:7c:00:fe:7f:4c:80:c8:f6:e0:
        95:92:8c:7d:5f:5c:a2:33:76:c9:32:3a:3d:87:68:30:e9:ff:
        ca:42:ff:a5:c0:df:24:c1:40:78:65:8c:fa:70:4b:f7:79:aa:
        9b:61:70:f5
-----BEGIN CERTIFICATE-----
MIIDPzCCAiegAwIBAgIBATANBgkqhkiG9w0BAQUFADA7MQswCQYDVQQGEwJOTDER
MA8GA1UEChMIUG9sYXJTU0wxGTAXBgNVBAMTEFBvbGFyU1NMIFRlc3QgQ0EwHhcN
MDkwMTE0MjI0MzM1WhcNMTEwMTE0MjI0MzM1WjA8MQswCQYDVQQGEwJOTDERMA8G
A1UEChMIUG9sYXJTU0wxGjAYBgNVBAMTEVBvbGFyU1NMIFNlcnZlciAxMIIBIjAN
BgkqhkiG9w0BAQEFAAOCAQ8AMIIBCgKCAQEArWi6EmdDpxEs4NjXoZuJr6ejki8g
V+m8ron4fIYASAjLC7b80Ajn+xRn5Ctosg5+AdAB9yIqQ2dIK4hcr4wa0k3PGMI+
4RUivNSxfHy4c/PKEdI9333Evfvy/bvmTs6NxBvCKuBEF741PiXb2LCYnh1oOP6Z
Kl8r59BSSr/37W2zFLVPxQXzBi4vsSubx/rHTaYWYPey576asNuN6zh6LuEmJTYI
mtl7YHbEfTSztH7qC6NdXeESiNiCoSUlRN4RSEakqxPf44iwsYR3zg0ASLuqRgsT
CJ5Radyt5sWbl9EsWsQG/sBP4nqCrD6nDWpUDEaApMfpKaTzzZPT4LQ4FQIDAQAB
o00wSzAJBgNVHRMEAjAAMB0GA1UdDgQWBBTU+HRZi1+uZxwze0vy1O+CauYhCDAf
BgNVHSMEGDAWgBSA7iFIRmtW6p1xMgZkL0zBtC2pLjANBgkqhkiG9w0BAQUFAAOC
AQEAgltTDDwAE80Fr75HqrFK9ADa05WR75dqqMQBuTNvn9d/bjLWZC1J1/3ZmMJ7
gS0uCqRJaZfqbjtl9FqeqOC2UVM3udLjB4tdA3xKqHXJL8PneL8AeKJkuVnunA02
x/gaZpHHyVDBmo3zWZ44NWuBn3QoN0cpxCTcZD4KURcm6T4BCo6cFaCNXII9EfY6
INcw+O17JFRKipNXnW+80CjzhnyeKLWVLZZZNbKbrlumS61S4IoE9F8R7RQeZoN3
gMPXnf6TNRYK0Z4SKBA19LlrfAD+f0yAyPbglZKMfV9cojN2yTI6PYdoMOn/ykL/
pcDfJMFAeGWM+nBL93mqm2Fw9Q==
-----END CERTIFICATE-----
