Certificate:
    Data:
        Version: 3 (0x2)
        Serial Number: 0 (0x0)
        Signature Algorithm: sha1WithRSAEncryption
        Issuer: C=NL, O=PolarSSL, CN=PolarSSL Test CA
        Validity
            Not Before: Jan 14 22:43:11 2009 GMT
            Not After : Jan 15 22:43:11 2019 GMT
        Subject: C=NL, O=PolarSSL, CN=PolarSSL Test CA
        Subject Public Key Info:
            Public Key Algorithm: rsaEncryption
            RSA Public Key: (2048 bit)
                Modulus (2048 bit):
                    00:c2:89:ce:2a:17:e9:0c:14:33:8b:7c:8e:28:a8:
                    57:73:0d:6d:59:d1:35:1d:a2:68:ad:99:dd:5b:bb:
                    47:97:50:c8:b3:a6:f3:77:23:d8:5f:0f:06:14:a9:
                    80:83:c1:a8:11:28:fd:c9:1c:1a:59:74:54:3f:ad:
                    84:a5:ee:05:bb:e4:73:bf:70:aa:01:fb:8b:02:50:
                    0a:dd:ad:b7:b5:36:35:89:3e:7c:48:b6:d5:b2:9b:
                    a8:b6:79:cf:20:17:41:7d:72:2c:52:1b:66:b1:e2:
                    4c:e7:86:43:fa:51:62:3d:6d:83:51:1b:aa:d6:10:
                    c6:9b:43:c9:1c:9f:b1:e8:b3:d5:11:25:24:dc:57:
                    17:42:6b:fc:26:54:50:67:5e:3f:54:c9:41:ba:fb:
                    45:30:e6:62:05:b3:b9:cc:45:58:b0:9d:e8:fe:84:
                    25:29:fe:b1:93:b6:11:e5:75:54:7f:d9:41:7b:0f:
                    37:a7:4a:21:8d:b8:0d:18:5f:01:68:34:e2:4d:13:
                    e9:a6:e1:f2:44:73:fe:a6:38:09:d1:11:22:04:78:
                    f5:97:66:c7:56:c8:a3:6e:55:ed:45:f8:50:47:fd:
                    84:a6:d6:a1:65:f2:08:17:2d:8a:ae:ea:54:8a:54:
                    83:ca:d6:be:7c:fc:b0:ab:7a:df:63:b5:f3:ce:84:
                    34:25
                Exponent: 65537 (0x10001)
        X509v3 extensions:
            X509v3 Basic Constraints: 
                CA:TRUE
            X509v3 Subject Key Identifier: 
                80:EE:21:48:46:6B:56:EA:9D:71:32:06:64:2F:4C:C1:B4:2D:A9:2E
            X509v3 Authority Key Identifier: 
                keyid:80:EE:21:48:46:6B:56:EA:9D:71:32:06:64:2F:4C:C1:B4:2D:A9:2E
                DirName:/C=NL/O=PolarSSL/CN=PolarSSL Test CA
                serial:00

    Signature Algorithm: sha1WithRSAEncryption
        9a:e0:a9:b4:d5:0b:7d:cb:94:6d:f9:19:e9:27:ca:9f:b8:6f:
        fa:4e:3d:06:4e:f3:d3:29:cb:1d:81:93:96:b2:3a:f3:e7:1a:
        7e:35:64:ad:56:02:0f:d9:f0:d5:b4:dd:10:a0:4a:0a:e0:65:
        4a:f5:3a:4e:44:40:c6:33:06:55:af:1a:ba:67:b2:10:1d:c6:
        fd:e4:a3:77:09:9a:4a:92:c1:0f:39:35:4b:44:70:18:fa:63:
        3c:cb:8c:b4:4e:37:96:3e:e3:fe:93:1b:18:cf:61:2b:12:8d:
        34:cb:64:38:7b:8c:44:e8:e5:33:0d:8a:f8:e8:88:97:f4:01:
        c9:0c:47:b5:6f:c9:ec:ec:b3:15:c1:9b:09:c5:05:66:52:80:
        48:a3:33:00:b1:fe:8d:94:44:7d:4b:60:35:09:6a:de:51:a8:
        82:3a:67:fb:ca:e3:92:e5:b8:2e:bb:22:a0:b7:4b:c4:06:2c:
        94:80:3c:d9:7f:46:3c:0a:8d:7c:75:47:90:5a:57:f0:40:6e:
        87:e8:93:20:80:0a:ce:05:c2:5d:40:94:9f:5e:c6:a0:53:6d:
        86:74:3f:f8:6e:97:46:8b:3d:bd:1b:10:7d:4a:47:2e:81:38:
        b9:d5:f5:57:aa:d0:0a:d1:b1:c9:dc:77:0e:80:02:c9:29:b2:
        3f:75:34:44
-----BEGIN CERTIFICATE-----
MIIDhzCCAm+gAwIBAgIBADANBgkqhkiG9w0BAQUFADA7MQswCQYDVQQGEwJOTDER
MA8GA1UEChMIUG9sYXJTU0wxGTAXBgNVBAMTEFBvbGFyU1NMIFRlc3QgQ0EwHhcN
MDkwMTE0MjI0MzExWhcNMTkwMTE1MjI0MzExWjA7MQswCQYDVQQGEwJOTDERMA8G
A1UEChMIUG9sYXJTU0wxGTAXBgNVBAMTEFBvbGFyU1NMIFRlc3QgQ0EwggEiMA0G
CSqGSIb3DQEBAQUAA4IBDwAwggEKAoIBAQDCic4qF+kMFDOLfI4oqFdzDW1Z0TUd
omitmd1bu0eXUMizpvN3I9hfDwYUqYCDwagRKP3JHBpZdFQ/rYSl7gW75HO/cKoB
+4sCUArdrbe1NjWJPnxIttWym6i2ec8gF0F9cixSG2ax4kznhkP6UWI9bYNRG6rW
EMabQ8kcn7Hos9URJSTcVxdCa/wmVFBnXj9UyUG6+0Uw5mIFs7nMRViwnej+hCUp
/rGTthHldVR/2UF7DzenSiGNuA0YXwFoNOJNE+mm4fJEc/6mOAnRESIEePWXZsdW
yKNuVe1F+FBH/YSm1qFl8ggXLYqu6lSKVIPK1r58/LCret9jtfPOhDQlAgMBAAGj
gZUwgZIwDAYDVR0TBAUwAwEB/zAdBgNVHQ4EFgQUgO4hSEZrVuqdcTIGZC9MwbQt
qS4wYwYDVR0jBFwwWoAUgO4hSEZrVuqdcTIGZC9MwbQtqS6hP6Q9MDsxCzAJBgNV
BAYTAk5MMREwDwYDVQQKEwhQb2xhclNTTDEZMBcGA1UEAxMQUG9sYXJTU0wgVGVz
dCBDQYIBADANBgkqhkiG9w0BAQUFAAOCAQEAmuCptNULfcuUbfkZ6SfKn7hv+k49
Bk7z0ynLHYGTlrI68+cafjVkrVYCD9nw1bTdEKBKCuBlSvU6TkRAxjMGVa8aumey
EB3G/eSjdwmaSpLBDzk1S0RwGPpjPMuMtE43lj7j/pMbGM9hKxKNNMtkOHuMROjl
Mw2K+OiIl/QByQxHtW/J7OyzFcGbCcUFZlKASKMzALH+jZREfUtgNQlq3lGogjpn
+8rjkuW4LrsioLdLxAYslIA82X9GPAqNfHVHkFpX8EBuh+iTIIAKzgXCXUCUn17G
oFNthnQ/+G6XRos9vRsQfUpHLoE4udX1V6rQCtGxydx3DoACySmyP3U0RA==
-----END CERTIFICATE-----
