Certificate:
    Data:
        Version: 3 (0x2)
        Serial Number: 15 (0xf)
        Signature Algorithm: sha384WithRSAEncryption
        Issuer: C=NL, O=PolarSSL, CN=PolarSSL Test CA
        Validity
            Not Before: Jul 12 10:56:59 2009 GMT
            Not After : Jul 12 10:56:59 2011 GMT
        Subject: C=NL, O=PolarSSL, CN=PolarSSL Cert SHA384
        Subject Public Key Info:
            Public Key Algorithm: rsaEncryption
            RSA Public Key: (2048 bit)
                Modulus (2048 bit):
                    00:dc:13:74:81:c6:12:f6:67:5d:a1:66:72:ed:dc:
                    79:b6:58:5c:32:58:b3:d4:14:fd:6c:02:61:9e:0b:
                    99:46:63:a3:0a:41:d4:42:33:21:e6:ed:43:07:5a:
                    1d:a2:3b:64:29:a8:2a:c1:66:28:00:59:d8:0c:49:
                    2d:30:b7:3d:8c:bb:60:62:31:83:27:7f:4b:95:92:
                    2e:a0:d6:c6:84:94:4b:b3:e4:a6:cc:ff:32:3a:c5:
                    ec:4c:c9:24:58:bf:b3:33:77:6a:b5:17:8b:02:10:
                    29:8e:95:aa:91:60:17:43:42:87:a8:7c:da:09:83:
                    98:9d:7a:65:5e:20:52:07:2e:65:a5:31:fd:d9:74:
                    1e:00:c9:ae:9d:81:56:8b:08:0a:f5:1e:9c:dc:a2:
                    5e:6c:db:ff:11:83:15:f4:d1:24:57:9b:0f:eb:35:
                    c9:f1:aa:46:4e:74:7f:fe:1d:b0:91:1f:89:4a:84:
                    cb:df:75:e3:cd:77:82:62:09:e5:9f:6d:29:de:2e:
                    25:d8:48:b6:20:be:51:97:4c:2d:20:65:2d:2a:50:
                    9e:24:5d:72:95:e0:a2:06:41:8c:61:e4:50:57:74:
                    96:b1:29:b5:a1:88:37:f1:5c:9e:b2:9e:8e:83:8d:
                    72:3b:b5:5c:fe:bb:12:89:72:5c:a1:f9:d8:18:29:
                    b2:27
                Exponent: 65537 (0x10001)
        X509v3 extensions:
            X509v3 Basic Constraints: 
                CA:FALSE
            X509v3 Subject Key Identifier: 
                B7:51:D4:E5:20:D5:45:54:F4:C5:51:1B:E0:82:B5:61:05:AF:9B:B6
            X509v3 Authority Key Identifier: 
                keyid:CF:22:31:27:91:D8:C2:54:FF:1E:DA:D9:EE:8A:C5:89:32:AD:0C:21

    Signature Algorithm: sha384WithRSAEncryption
        21:92:8d:39:05:a4:16:00:35:0b:de:ce:a8:17:9f:b8:a1:8b:
        ad:5c:17:40:a8:5a:3b:c9:e5:5a:48:0d:e4:c3:6f:22:5a:eb:
        19:85:10:a2:af:8f:71:e7:ca:a9:4f:be:01:3d:ba:8b:91:40:
        25:f3:51:b6:d9:54:ae:4a:1d:2a:da:dd:9f:f8:70:07:31:35:
        c0:ea:5e:ca:c5:76:38:08:f1:63:0d:8d:f7:96:3a:97:cb:a0:
        f0:33:0f:2a:91:e4:13:30:73:68:74:92:e5:08:af:27:b8:14:
        8e:b5:f6:a8:95:f2:52:c9:d1:bc:35:fa:97:ef:74:9e:dc:cc:
        df:b3:d2:cd:8e:f1:fa:81:6d:b0:38:37:10:4a:1d:f7:ed:10:
        33:da:e0:2f:ae:bb:a8:6a:02:f9:44:d7:46:a6:fb:89:b3:d7:
        5b:dc:55:7d:a9:51:c5:f2:79:d8:60:b7:52:7c:9d:e5:13:ed:
        98:1d:39:1b:fa:da:b9:70:53:51:22:22:03:1c:6e:f6:5d:88:
        d8:a8:5e:95:8d:27:69:97:d5:a6:3f:ae:83:9b:02:e9:45:21:
        e6:df:d5:84:ec:78:3a:e2:e7:a9:8a:e9:62:fa:fc:dc:94:86:
        66:30:48:ea:dc:e2:5f:c0:52:d1:be:d0:03:c4:e3:7c:52:ce:
        79:f1:26:84
-----BEGIN CERTIFICATE-----
MIIDQjCCAiqgAwIBAgIBDzANBgkqhkiG9w0BAQwFADA7MQswCQYDVQQGEwJOTDER
MA8GA1UEChMIUG9sYXJTU0wxGTAXBgNVBAMTEFBvbGFyU1NMIFRlc3QgQ0EwHhcN
MDkwNzEyMTA1NjU5WhcNMTEwNzEyMTA1NjU5WjA/MQswCQYDVQQGEwJOTDERMA8G
A1UEChMIUG9sYXJTU0wxHTAbBgNVBAMTFFBvbGFyU1NMIENlcnQgU0hBMzg0MIIB
IjANBgkqhkiG9w0BAQEFAAOCAQ8AMIIBCgKCAQEA3BN0gcYS9mddoWZy7dx5tlhc
Mliz1BT9bAJhnguZRmOjCkHUQjMh5u1DB1odojtkKagqwWYoAFnYDEktMLc9jLtg
YjGDJ39LlZIuoNbGhJRLs+SmzP8yOsXsTMkkWL+zM3dqtReLAhApjpWqkWAXQ0KH
qHzaCYOYnXplXiBSBy5lpTH92XQeAMmunYFWiwgK9R6c3KJebNv/EYMV9NEkV5sP
6zXJ8apGTnR//h2wkR+JSoTL33XjzXeCYgnln20p3i4l2Ei2IL5Rl0wtIGUtKlCe
JF1yleCiBkGMYeRQV3SWsSm1oYg38Vyesp6Og41yO7Vc/rsSiXJcofnYGCmyJwID
AQABo00wSzAJBgNVHRMEAjAAMB0GA1UdDgQWBBS3UdTlINVFVPTFURvggrVhBa+b
tjAfBgNVHSMEGDAWgBTPIjEnkdjCVP8e2tnuisWJMq0MITANBgkqhkiG9w0BAQwF
AAOCAQEAIZKNOQWkFgA1C97OqBefuKGLrVwXQKhaO8nlWkgN5MNvIlrrGYUQoq+P
cefKqU++AT26i5FAJfNRttlUrkodKtrdn/hwBzE1wOpeysV2OAjxYw2N95Y6l8ug
8DMPKpHkEzBzaHSS5QivJ7gUjrX2qJXyUsnRvDX6l+90ntzM37PSzY7x+oFtsDg3
EEod9+0QM9rgL667qGoC+UTXRqb7ibPXW9xVfalRxfJ52GC3Unyd5RPtmB05G/ra
uXBTUSIiAxxu9l2I2KhelY0naZfVpj+ug5sC6UUh5t/VhOx4OuLnqYrpYvr83JSG
ZjBI6tziX8BS0b7QA8TjfFLOefEmhA==
-----END CERTIFICATE-----
